target datalayout = "e-m:e-p270:32:32-p271:32:32-p272:64:64-i64:64-i128:128-f80:128-n8:16:32:64-S128"
target triple = "x86_64-pc-linux-gnu"

%struct.Jpeg2000EncoderContext = type { ptr, ptr, ptr, i32, i32, [4 x i8], [4 x i8], [2 x i32], i8, i32, i32, i32, i32, i32, ptr, ptr, ptr, i32, i64, %struct.Jpeg2000CodingStyle, %struct.Jpeg2000QuantStyle, ptr, [100 x i32], i8, i32, i32, i32, i32, i32, i32, ptr }
%struct.Jpeg2000CodingStyle = type { i32, i32, i8, i8, i8, i8, i8, i8, i8, i8, [34 x i8], [34 x i8], i8 }
%struct.Jpeg2000QuantStyle = type { [99 x i8], [99 x i16], i8, i8 }
%struct.Jpeg2000TgtNode = type { i8, i8, i8, ptr }

; Function Attrs: nounwind uwtable
define internal void @put_bits(ptr noundef %0, i32 noundef %1, i32 noundef %2) #1 {
  %4 = alloca ptr, align 8
  %5 = alloca i32, align 4
  %6 = alloca i32, align 4
  store ptr %0, ptr %4, align 8, !tbaa !29
  store i32 %1, ptr %5, align 4, !tbaa !43
  store i32 %2, ptr %6, align 4, !tbaa !43
  br label %7

7:                                                ; preds = %30, %3
  %8 = load i32, ptr %6, align 4, !tbaa !43
  %9 = add nsw i32 %8, -1
  store i32 %9, ptr %6, align 4, !tbaa !43
  %10 = icmp sgt i32 %8, 0
  br i1 %10, label %11, label %45

11:                                               ; preds = %7
  %12 = load ptr, ptr %4, align 8, !tbaa !29
  %13 = getelementptr inbounds nuw %struct.Jpeg2000EncoderContext, ptr %12, i32 0, i32 17
  %14 = load i32, ptr %13, align 8, !tbaa !273
  %15 = icmp eq i32 %14, 8
  br i1 %15, label %16, label %30

16:                                               ; preds = %11
  %17 = load ptr, ptr %4, align 8, !tbaa !29
  %18 = getelementptr inbounds nuw %struct.Jpeg2000EncoderContext, ptr %17, i32 0, i32 15
  %19 = load ptr, ptr %18, align 8, !tbaa !78
  %20 = load i8, ptr %19, align 1, !tbaa !66
  %21 = zext i8 %20 to i32
  %22 = icmp eq i32 %21, 255
  %23 = zext i1 %22 to i32
  %24 = load ptr, ptr %4, align 8, !tbaa !29
  %25 = getelementptr inbounds nuw %struct.Jpeg2000EncoderContext, ptr %24, i32 0, i32 17
  store i32 %23, ptr %25, align 8, !tbaa !273
  %26 = load ptr, ptr %4, align 8, !tbaa !29
  %27 = getelementptr inbounds nuw %struct.Jpeg2000EncoderContext, ptr %26, i32 0, i32 15
  %28 = load ptr, ptr %27, align 8, !tbaa !78
  %29 = getelementptr inbounds nuw i8, ptr %28, i32 1
  store ptr %29, ptr %27, align 8, !tbaa !78
  store i8 0, ptr %29, align 1, !tbaa !66
  br label %30

30:                                               ; preds = %16, %11
  %31 = load i32, ptr %5, align 4, !tbaa !43
  %32 = load ptr, ptr %4, align 8, !tbaa !29
  %33 = getelementptr inbounds nuw %struct.Jpeg2000EncoderContext, ptr %32, i32 0, i32 17
  %34 = load i32, ptr %33, align 8, !tbaa !273
  %35 = add nsw i32 %34, 1
  store i32 %35, ptr %33, align 8, !tbaa !273
  %36 = sub nsw i32 7, %34
  %37 = shl i32 %31, %36
  %38 = load ptr, ptr %4, align 8, !tbaa !29
  %39 = getelementptr inbounds nuw %struct.Jpeg2000EncoderContext, ptr %38, i32 0, i32 15
  %40 = load ptr, ptr %39, align 8, !tbaa !78
  %41 = load i8, ptr %40, align 1, !tbaa !66
  %42 = zext i8 %41 to i32
  %43 = or i32 %42, %37
  %44 = trunc i32 %43 to i8
  store i8 %44, ptr %40, align 1, !tbaa !66
  br label %7, !llvm.loop !294

45:                                               ; preds = %7
  ret void
}

; Function Attrs: nounwind uwtable
define internal void @tag_tree_code(ptr noundef %0, ptr noundef %1, i32 noundef %2) #1 {
  %4 = alloca ptr, align 8
  %5 = alloca ptr, align 8
  %6 = alloca i32, align 4
  %7 = alloca [30 x ptr], align 16
  %8 = alloca i32, align 4
  %9 = alloca i32, align 4
  store ptr %0, ptr %4, align 8, !tbaa !29
  store ptr %1, ptr %5, align 8, !tbaa !291
  store i32 %2, ptr %6, align 4, !tbaa !43
  call void @llvm.lifetime.start.p0(i64 240, ptr %7) #13
  call void @llvm.lifetime.start.p0(i64 4, ptr %8) #13
  store i32 -1, ptr %8, align 4, !tbaa !43
  call void @llvm.lifetime.start.p0(i64 4, ptr %9) #13
  store i32 0, ptr %9, align 4, !tbaa !43
  br label %10

10:                                               ; preds = %15, %3
  %11 = load ptr, ptr %5, align 8, !tbaa !291
  %12 = getelementptr inbounds nuw %struct.Jpeg2000TgtNode, ptr %11, i32 0, i32 3
  %13 = load ptr, ptr %12, align 8, !tbaa !292
  %14 = icmp ne ptr %13, null
  br i1 %14, label %15, label %24

15:                                               ; preds = %10
  %16 = load ptr, ptr %5, align 8, !tbaa !291
  %17 = load i32, ptr %8, align 4, !tbaa !43
  %18 = add nsw i32 %17, 1
  store i32 %18, ptr %8, align 4, !tbaa !43
  %19 = sext i32 %18 to i64
  %20 = getelementptr inbounds [30 x ptr], ptr %7, i64 0, i64 %19
  store ptr %16, ptr %20, align 8, !tbaa !291
  %21 = load ptr, ptr %5, align 8, !tbaa !291
  %22 = getelementptr inbounds nuw %struct.Jpeg2000TgtNode, ptr %21, i32 0, i32 3
  %23 = load ptr, ptr %22, align 8, !tbaa !292
  store ptr %23, ptr %5, align 8, !tbaa !291
  br label %10, !llvm.loop !295

24:                                               ; preds = %10
  br label %25

25:                                               ; preds = %85, %24
  br label %26

26:                                               ; preds = %25
  %27 = load i32, ptr %9, align 4, !tbaa !43
  %28 = load ptr, ptr %5, align 8, !tbaa !291
  %29 = getelementptr inbounds nuw %struct.Jpeg2000TgtNode, ptr %28, i32 0, i32 1
  %30 = load i8, ptr %29, align 1, !tbaa !296
  %31 = zext i8 %30 to i32
  %32 = icmp sgt i32 %27, %31
  br i1 %32, label %33, label %38

33:                                               ; preds = %26
  %34 = load i32, ptr %9, align 4, !tbaa !43
  %35 = trunc i32 %34 to i8
  %36 = load ptr, ptr %5, align 8, !tbaa !291
  %37 = getelementptr inbounds nuw %struct.Jpeg2000TgtNode, ptr %36, i32 0, i32 1
  store i8 %35, ptr %37, align 1, !tbaa !296
  br label %43

38:                                               ; preds = %26
  %39 = load ptr, ptr %5, align 8, !tbaa !291
  %40 = getelementptr inbounds nuw %struct.Jpeg2000TgtNode, ptr %39, i32 0, i32 1
  %41 = load i8, ptr %40, align 1, !tbaa !296
  %42 = zext i8 %41 to i32
  store i32 %42, ptr %9, align 4, !tbaa !43
  br label %43

43:                                               ; preds = %38, %33
  %44 = load ptr, ptr %5, align 8, !tbaa !291
  %45 = getelementptr inbounds nuw %struct.Jpeg2000TgtNode, ptr %44, i32 0, i32 0
  %46 = load i8, ptr %45, align 8, !tbaa !276
  %47 = zext i8 %46 to i32
  %48 = load i32, ptr %6, align 4, !tbaa !43
  %49 = icmp sge i32 %47, %48
  br i1 %49, label %50, label %56

50:                                               ; preds = %43
  %51 = load ptr, ptr %4, align 8, !tbaa !29
  %52 = load i32, ptr %6, align 4, !tbaa !43
  %53 = load i32, ptr %9, align 4, !tbaa !43
  %54 = sub nsw i32 %52, %53
  call void @put_bits(ptr noundef %51, i32 noundef 0, i32 noundef %54)
  %55 = load i32, ptr %6, align 4, !tbaa !43
  store i32 %55, ptr %9, align 4, !tbaa !43
  br label %77

56:                                               ; preds = %43
  %57 = load ptr, ptr %4, align 8, !tbaa !29
  %58 = load ptr, ptr %5, align 8, !tbaa !291
  %59 = getelementptr inbounds nuw %struct.Jpeg2000TgtNode, ptr %58, i32 0, i32 0
  %60 = load i8, ptr %59, align 8, !tbaa !276
  %61 = zext i8 %60 to i32
  %62 = load i32, ptr %9, align 4, !tbaa !43
  %63 = sub nsw i32 %61, %62
  call void @put_bits(ptr noundef %57, i32 noundef 0, i32 noundef %63)
  %64 = load ptr, ptr %5, align 8, !tbaa !291
  %65 = getelementptr inbounds nuw %struct.Jpeg2000TgtNode, ptr %64, i32 0, i32 0
  %66 = load i8, ptr %65, align 8, !tbaa !276
  %67 = zext i8 %66 to i32
  store i32 %67, ptr %9, align 4, !tbaa !43
  %68 = load ptr, ptr %5, align 8, !tbaa !291
  %69 = getelementptr inbounds nuw %struct.Jpeg2000TgtNode, ptr %68, i32 0, i32 2
  %70 = load i8, ptr %69, align 2, !tbaa !297
  %71 = icmp ne i8 %70, 0
  br i1 %71, label %76, label %72

72:                                               ; preds = %56
  %73 = load ptr, ptr %4, align 8, !tbaa !29
  call void @put_bits(ptr noundef %73, i32 noundef 1, i32 noundef 1)
  %74 = load ptr, ptr %5, align 8, !tbaa !291
  %75 = getelementptr inbounds nuw %struct.Jpeg2000TgtNode, ptr %74, i32 0, i32 2
  store i8 1, ptr %75, align 2, !tbaa !297
  br label %76

76:                                               ; preds = %72, %56
  br label %77

77:                                               ; preds = %76, %50
  %78 = load i32, ptr %9, align 4, !tbaa !43
  %79 = trunc i32 %78 to i8
  %80 = load ptr, ptr %5, align 8, !tbaa !291
  %81 = getelementptr inbounds nuw %struct.Jpeg2000TgtNode, ptr %80, i32 0, i32 1
  store i8 %79, ptr %81, align 1, !tbaa !296
  %82 = load i32, ptr %8, align 4, !tbaa !43
  %83 = icmp slt i32 %82, 0
  br i1 %83, label %84, label %85

84:                                               ; preds = %77
  br label %91

85:                                               ; preds = %77
  %86 = load i32, ptr %8, align 4, !tbaa !43
  %87 = add nsw i32 %86, -1
  store i32 %87, ptr %8, align 4, !tbaa !43
  %88 = sext i32 %86 to i64
  %89 = getelementptr inbounds [30 x ptr], ptr %7, i64 0, i64 %88
  %90 = load ptr, ptr %89, align 8, !tbaa !291
  store ptr %90, ptr %5, align 8, !tbaa !291
  br label %25

91:                                               ; preds = %84
  call void @llvm.lifetime.end.p0(i64 4, ptr %9) #13
  call void @llvm.lifetime.end.p0(i64 4, ptr %8) #13
  call void @llvm.lifetime.end.p0(i64 240, ptr %7) #13
  ret void
}