; Function Attrs: nofree norecurse nosync nounwind memory(readwrite, inaccessiblemem: none) uwtable
define internal fastcc void @tag_tree_code(ptr noundef captures(none) %0, ptr noundef %1, i32 noundef range(i32 -2147483647, -2147483648) %2) unnamed_addr #8 {
  %4 = alloca [30 x ptr], align 16
  call void @llvm.lifetime.start.p0(i64 240, ptr nonnull %4) #12
  %5 = getelementptr inbounds nuw i8, ptr %1, i64 8
  %6 = load ptr, ptr %5, align 8, !tbaa !261
  %.not43 = icmp eq ptr %6, null
  br i1 %.not43, label %.preheader, label %.lr.ph

.preheader.loopexit:                              ; preds = %.lr.ph
  %7 = trunc nuw nsw i64 %indvars.iv.next to i32
  br label %.preheader

.preheader:                                       ; preds = %.preheader.loopexit, %3
  %.027.lcssa = phi ptr [ %1, %3 ], [ %10, %.preheader.loopexit ]
  %.025.lcssa = phi i32 [ -1, %3 ], [ %7, %.preheader.loopexit ]
  %8 = getelementptr inbounds nuw i8, ptr %0, i64 96
  %9 = getelementptr inbounds nuw i8, ptr %0, i64 80
  br label %14

.lr.ph:                                           ; preds = %3, %.lr.ph
  %indvars.iv = phi i64 [ %indvars.iv.next, %.lr.ph ], [ -1, %3 ]
  %10 = phi ptr [ %13, %.lr.ph ], [ %6, %3 ]
  %.02744 = phi ptr [ %10, %.lr.ph ], [ %1, %3 ]
  %indvars.iv.next = add nsw i64 %indvars.iv, 1
  %11 = getelementptr inbounds [30 x ptr], ptr %4, i64 0, i64 %indvars.iv.next
  store ptr %.02744, ptr %11, align 8, !tbaa !276
  %12 = getelementptr inbounds nuw i8, ptr %10, i64 8
  %13 = load ptr, ptr %12, align 8, !tbaa !261
  %.not = icmp eq ptr %13, null
  br i1 %.not, label %.preheader.loopexit, label %.lr.ph, !llvm.loop !277

14:                                               ; preds = %.preheader, %78
  %.128 = phi ptr [ %82, %78 ], [ %.027.lcssa, %.preheader ]
  %.126 = phi i32 [ %79, %78 ], [ %.025.lcssa, %.preheader ]
  %.0 = phi i32 [ %.2, %78 ], [ 0, %.preheader ]
  %15 = getelementptr inbounds nuw i8, ptr %.128, i64 1
  %16 = load i8, ptr %15, align 1, !tbaa !278
  %17 = zext i8 %16 to i32
  %18 = icmp sgt i32 %.0, %17
  br i1 %18, label %19, label %21

19:                                               ; preds = %14
  %20 = trunc nuw i32 %.0 to i8
  store i8 %20, ptr %15, align 1, !tbaa !278
  br label %21

21:                                               ; preds = %14, %19
  %.1 = phi i32 [ %.0, %19 ], [ %17, %14 ]
  %22 = load i8, ptr %.128, align 8, !tbaa !257
  %23 = zext i8 %22 to i32
  %.not32 = icmp sgt i32 %2, %23
  br i1 %.not32, label %41, label %24

24:                                               ; preds = %21
  %25 = sub nsw i32 %2, %.1
  %26 = icmp sgt i32 %25, 0
  br i1 %26, label %.lr.ph.i, label %put_bits.exit

.lr.ph.i:                                         ; preds = %24
  %.pr = load i32, ptr %8, align 8, !tbaa !254
  br label %27

27:                                               ; preds = %37, %.lr.ph.i
  %28 = phi i32 [ %39, %37 ], [ %.pr, %.lr.ph.i ]
  %.in.i = phi i32 [ %29, %37 ], [ %25, %.lr.ph.i ]
  %29 = add nsw i32 %.in.i, -1
  %30 = icmp eq i32 %28, 8
  br i1 %30, label %31, label %37

31:                                               ; preds = %27
  %32 = load ptr, ptr %9, align 8, !tbaa !94
  %33 = load i8, ptr %32, align 1, !tbaa !62
  %34 = icmp eq i8 %33, -1
  %35 = zext i1 %34 to i32
  store i32 %35, ptr %8, align 8, !tbaa !254
  %36 = getelementptr inbounds nuw i8, ptr %32, i64 1
  store ptr %36, ptr %9, align 8, !tbaa !94
  store i8 0, ptr %36, align 1, !tbaa !62
  %.pre.i = load i32, ptr %8, align 8, !tbaa !254
  br label %37

37:                                               ; preds = %31, %27
  %38 = phi i32 [ %.pre.i, %31 ], [ %28, %27 ]
  %39 = add nsw i32 %38, 1
  store i32 %39, ptr %8, align 8, !tbaa !254
  %40 = icmp samesign ugt i32 %.in.i, 1
  br i1 %40, label %27, label %put_bits.exit, !llvm.loop !269

41:                                               ; preds = %21
  %42 = sub nsw i32 %23, %.1
  %43 = icmp sgt i32 %42, 0
  br i1 %43, label %.lr.ph.i34, label %put_bits.exit37

.lr.ph.i34:                                       ; preds = %41
  %.pr42 = load i32, ptr %8, align 8, !tbaa !254
  br label %44

44:                                               ; preds = %54, %.lr.ph.i34
  %45 = phi i32 [ %56, %54 ], [ %.pr42, %.lr.ph.i34 ]
  %.in.i35 = phi i32 [ %46, %54 ], [ %42, %.lr.ph.i34 ]
  %46 = add nsw i32 %.in.i35, -1
  %47 = icmp eq i32 %45, 8
  br i1 %47, label %48, label %54

48:                                               ; preds = %44
  %49 = load ptr, ptr %9, align 8, !tbaa !94
  %50 = load i8, ptr %49, align 1, !tbaa !62
  %51 = icmp eq i8 %50, -1
  %52 = zext i1 %51 to i32
  store i32 %52, ptr %8, align 8, !tbaa !254
  %53 = getelementptr inbounds nuw i8, ptr %49, i64 1
  store ptr %53, ptr %9, align 8, !tbaa !94
  store i8 0, ptr %53, align 1, !tbaa !62
  %.pre.i36 = load i32, ptr %8, align 8, !tbaa !254
  br label %54

54:                                               ; preds = %48, %44
  %55 = phi i32 [ %.pre.i36, %48 ], [ %45, %44 ]
  %56 = add nsw i32 %55, 1
  store i32 %56, ptr %8, align 8, !tbaa !254
  %57 = icmp samesign ugt i32 %.in.i35, 1
  br i1 %57, label %44, label %put_bits.exit37.loopexit, !llvm.loop !269

put_bits.exit37.loopexit:                         ; preds = %54
  %.pre = load i8, ptr %.128, align 8, !tbaa !257
  %.pre50 = zext i8 %.pre to i32
  br label %put_bits.exit37

put_bits.exit37:                                  ; preds = %put_bits.exit37.loopexit, %41
  %.pre-phi = phi i32 [ %.pre50, %put_bits.exit37.loopexit ], [ %23, %41 ]
  %58 = getelementptr inbounds nuw i8, ptr %.128, i64 2
  %59 = load i8, ptr %58, align 2, !tbaa !279
  %.not33 = icmp eq i8 %59, 0
  br i1 %.not33, label %.preheader47, label %put_bits.exit

.preheader47:                                     ; preds = %put_bits.exit37
  %60 = load i32, ptr %8, align 8, !tbaa !254
  %61 = icmp eq i32 %60, 8
  br i1 %61, label %62, label %put_bits.exit41

62:                                               ; preds = %.preheader47
  %63 = load ptr, ptr %9, align 8, !tbaa !94
  %64 = load i8, ptr %63, align 1, !tbaa !62
  %65 = icmp eq i8 %64, -1
  %66 = zext i1 %65 to i32
  store i32 %66, ptr %8, align 8, !tbaa !254
  %67 = getelementptr inbounds nuw i8, ptr %63, i64 1
  store ptr %67, ptr %9, align 8, !tbaa !94
  store i8 0, ptr %67, align 1, !tbaa !62
  %.pre.i40 = load i32, ptr %8, align 8, !tbaa !254
  br label %put_bits.exit41

put_bits.exit41:                                  ; preds = %62, %.preheader47
  %68 = phi i32 [ %.pre.i40, %62 ], [ %60, %.preheader47 ]
  %69 = add nsw i32 %68, 1
  store i32 %69, ptr %8, align 8, !tbaa !254
  %70 = sub nsw i32 7, %68
  %71 = shl nuw i32 1, %70
  %72 = load ptr, ptr %9, align 8, !tbaa !94
  %73 = load i8, ptr %72, align 1, !tbaa !62
  %74 = trunc i32 %71 to i8
  %75 = or i8 %73, %74
  store i8 %75, ptr %72, align 1, !tbaa !62
  store i8 1, ptr %58, align 2, !tbaa !279
  br label %put_bits.exit

put_bits.exit:                                    ; preds = %37, %24, %put_bits.exit37, %put_bits.exit41
  %.2 = phi i32 [ %.pre-phi, %put_bits.exit37 ], [ %.pre-phi, %put_bits.exit41 ], [ %2, %24 ], [ %2, %37 ]
  %76 = trunc i32 %.2 to i8
  store i8 %76, ptr %15, align 1, !tbaa !278
  %77 = icmp slt i32 %.126, 0
  br i1 %77, label %83, label %78

78:                                               ; preds = %put_bits.exit
  %79 = add nsw i32 %.126, -1
  %80 = zext nneg i32 %.126 to i64
  %81 = getelementptr inbounds nuw [30 x ptr], ptr %4, i64 0, i64 %80
  %82 = load ptr, ptr %81, align 8, !tbaa !276
  br label %14

83:                                               ; preds = %put_bits.exit
  call void @llvm.lifetime.end.p0(i64 240, ptr nonnull %4) #12
  ret void
}